; Function Attrs: mustprogress nofree norecurse nosync nounwind willreturn memory(read, argmem: readwrite, inaccessiblemem: none) uwtable
define nonnull ptr @get_active_class_name(ptr noundef writeonly %0) local_unnamed_addr #6 {
  %2 = load ptr, ptr getelementptr inbounds (%struct._zend_executor_globals, ptr @executor_globals, i64 0, i32 17), align 8
  %.not18 = icmp eq ptr %2, null
  br i1 %.not18, label %3, label %5

3:                                                ; preds = %1
  %.not = icmp eq ptr %0, null
  br i1 %.not, label %21, label %4

4:                                                ; preds = %3
  store ptr @.str, ptr %0, align 8
  br label %21

5:                                                ; preds = %1
  %6 = getelementptr inbounds i8, ptr %2, i64 24
  %7 = load ptr, ptr %6, align 8
  %8 = load i8, ptr %7, align 8
  %.off = add i8 %8, -1
  %switch = icmp ult i8 %.off, 2
  br i1 %switch, label %9, label %19

9:                                                ; preds = %5
  %10 = getelementptr inbounds i8, ptr %7, i64 16
  %11 = load ptr, ptr %10, align 8
  %.not14 = icmp eq ptr %0, null
  br i1 %.not14, label %14, label %12

12:                                               ; preds = %9
  %.not15 = icmp eq ptr %11, null
  %13 = select i1 %.not15, ptr @.str, ptr @.str.1
  store ptr %13, ptr %0, align 8
  br label %14

14:                                               ; preds = %12, %9
  %.not16 = icmp eq ptr %11, null
  br i1 %.not16, label %21, label %15

15:                                               ; preds = %14
  %16 = getelementptr inbounds i8, ptr %11, i64 8
  %17 = load ptr, ptr %16, align 8
  %18 = getelementptr inbounds i8, ptr %17, i64 24
  br label %21

19:                                               ; preds = %5
  %.not17 = icmp eq ptr %0, null
  br i1 %.not17, label %21, label %20

20:                                               ; preds = %19
  store ptr @.str, ptr %0, align 8
  br label %21

21:                                               ; preds = %19, %20, %15, %14, %3, %4
  %.0 = phi ptr [ @.str, %4 ], [ @.str, %3 ], [ %18, %15 ], [ @.str, %14 ], [ @.str, %20 ], [ @.str, %19 ]
  ret ptr %.0
}